; Function Attrs: mustprogress uwtable
define void @udat_parseCalendar_75(ptr noundef %format, ptr noundef %calendar, ptr noundef %text, i32 noundef %textLength, ptr noundef %parsePos, ptr nocapture noundef %status) local_unnamed_addr #1 personality ptr @__gxx_personality_v0 {
entry:
  %src = alloca %"class.icu_75::UnicodeString", align 8
  %agg.tmp = alloca %"class.icu_75::ConstChar16Ptr", align 8
  %pp = alloca %"class.icu_75::ParsePosition", align 8
  %0 = load i32, ptr %status, align 4
  %cmp.i = icmp slt i32 %0, 1
  br i1 %cmp.i, label %if.end, label %return

if.end:                                           ; preds = %entry
  %cmp = icmp eq i32 %textLength, -1
  %conv = zext i1 %cmp to i8
  store ptr %text, ptr %agg.tmp, align 8
  invoke void @_ZN6icu_7513UnicodeStringC1EaNS_14ConstChar16PtrEi(ptr noundef nonnull align 8 dereferenceable(64) %src, i8 noundef signext %conv, ptr noundef nonnull %agg.tmp, i32 noundef %textLength)
          to label %invoke.cont unwind label %lpad

invoke.cont:                                      ; preds = %if.end
  %1 = load ptr, ptr %agg.tmp, align 8
  call void asm sideeffect "", "rm,~{memory},~{dirflag},~{fpsr},~{flags}"(ptr %1) #7, !srcloc !4
  store ptr getelementptr inbounds ({ [5 x ptr] }, ptr @_ZTVN6icu_7513ParsePositionE, i64 0, i32 0, i64 2), ptr %pp, align 8
  %index.i = getelementptr inbounds i8, ptr %pp, i64 8
  %errorIndex.i = getelementptr inbounds i8, ptr %pp, i64 12
  store i32 -1, ptr %errorIndex.i, align 4
  %cmp3 = icmp eq ptr %parsePos, null
  br i1 %cmp3, label %invoke.cont.cont, label %invoke.cont.else

invoke.cont.else:                                 ; preds = %invoke.cont
  %.else.val = load i32, ptr %parsePos, align 4
  br label %invoke.cont.cont

invoke.cont.cont:                                 ; preds = %invoke.cont, %invoke.cont.else
  %2 = phi i32 [ 0, %invoke.cont ], [ %.else.val, %invoke.cont.else ]
  store i32 %2, ptr %index.i, align 8
  %vtable = load ptr, ptr %format, align 8
  %vfn = getelementptr inbounds i8, ptr %vtable, i64 88
  %3 = load ptr, ptr %vfn, align 8
  invoke void %3(ptr noundef nonnull align 8 dereferenceable(352) %format, ptr noundef nonnull align 8 dereferenceable(64) %src, ptr noundef nonnull align 8 dereferenceable(618) %calendar, ptr noundef nonnull align 8 dereferenceable(16) %pp)
          to label %invoke.cont8 unwind label %lpad6

lpad:                                             ; preds = %if.end
  %4 = landingpad { ptr, i32 }
          cleanup
  %5 = load ptr, ptr %agg.tmp, align 8
  call void asm sideeffect "", "rm,~{memory},~{dirflag},~{fpsr},~{flags}"(ptr %5) #7, !srcloc !4
  br label %eh.resume

invoke.cont8:                                     ; preds = %invoke.cont.cont
  %6 = load i32, ptr %errorIndex.i, align 4
  %cmp11 = icmp eq i32 %6, -1
  br i1 %cmp11, label %if.then12, label %if.else

if.then12:                                        ; preds = %invoke.cont8
  br i1 %cmp3, label %if.end17, label %if.then12.else

if.then12.else:                                   ; preds = %if.then12
  %7 = load i32, ptr %index.i, align 8
  store i32 %7, ptr %parsePos, align 4
  br label %if.end17

lpad6:                                            ; preds = %invoke.cont.cont
  %8 = landingpad { ptr, i32 }
          cleanup
  call void @_ZN6icu_7513ParsePositionD1Ev(ptr noundef nonnull align 8 dereferenceable(16) %pp) #7
  call void @_ZN6icu_7513UnicodeStringD1Ev(ptr noundef nonnull align 8 dereferenceable(64) %src) #7
  br label %eh.resume

if.else:                                          ; preds = %invoke.cont8
  br i1 %cmp3, label %if.else.cont, label %if.else.else

if.else.else:                                     ; preds = %if.else
  store i32 %6, ptr %parsePos, align 4
  br label %if.else.cont

if.else.cont:                                     ; preds = %if.else, %if.else.else
  store i32 9, ptr %status, align 4
  br label %if.end17

if.end17:                                         ; preds = %if.then12.else, %if.then12, %if.else.cont
  call void @_ZN6icu_7513ParsePositionD1Ev(ptr noundef nonnull align 8 dereferenceable(16) %pp) #7
  call void @_ZN6icu_7513UnicodeStringD1Ev(ptr noundef nonnull align 8 dereferenceable(64) %src) #7
  br label %return

return:                                           ; preds = %entry, %if.end17
  ret void

eh.resume:                                        ; preds = %lpad6, %lpad
  %.pn = phi { ptr, i32 } [ %8, %lpad6 ], [ %4, %lpad ]
  resume { ptr, i32 } %.pn
}